target datalayout = "e-m:e-p270:32:32-p271:32:32-p272:64:64-i64:64-i128:128-f80:128-n8:16:32:64-S128"
target triple = "x86_64-pc-linux-gnu"

%"class.std::__cxx11::basic_string" = type { %"struct.std::__cxx11::basic_string<char>::_Alloc_hider", i64, %union.anon }
%"struct.std::__cxx11::basic_string<char>::_Alloc_hider" = type { ptr }
%union.anon = type { i64, [8 x i8] }
%"class.cvtest::BaseTest" = type { ptr, i32, %"class.std::__cxx11::basic_string", ptr }

@.str.32 = private unnamed_addr constant [2 x i8] c".\00", align 1

; Function Attrs: alwaysinline mustprogress nounwind uwtable
define internal noundef i32 @_ZL14_mm_cvtsd_si32Dv2_d(<2 x double> noundef %0) #18 {
  %2 = alloca <2 x double>, align 16
  store <2 x double> %0, ptr %2, align 16, !tbaa !31
  %3 = load <2 x double>, ptr %2, align 16, !tbaa !31
  %4 = call i32 @llvm.x86.sse2.cvtsd2si(<2 x double> %3)
  ret i32 %4
}

; Function Attrs: alwaysinline mustprogress nounwind uwtable
define internal noundef <2 x double> @_ZL10_mm_set_sdd(double noundef %0) #18 {
  %2 = alloca double, align 8
  %3 = alloca <2 x double>, align 16
  store double %0, ptr %2, align 8, !tbaa !60
  %4 = load double, ptr %2, align 8, !tbaa !60
  %5 = insertelement <2 x double> poison, double %4, i32 0
  %6 = insertelement <2 x double> %5, double 0.000000e+00, i32 1
  store <2 x double> %6, ptr %3, align 16, !tbaa !31
  %7 = load <2 x double>, ptr %3, align 16, !tbaa !31
  ret <2 x double> %7
}

; Function Attrs: inlinehint mustprogress uwtable
define internal noundef i32 @_ZL7cvRoundd(double noundef %0) #14 {
  %2 = alloca double, align 8
  %3 = alloca <2 x double>, align 16
  store double %0, ptr %2, align 8, !tbaa !60
  call void @llvm.lifetime.start.p0(i64 16, ptr %3) #3
  %4 = load double, ptr %2, align 8, !tbaa !60
  %5 = call noundef <2 x double> @_ZL10_mm_set_sdd(double noundef %4)
  store <2 x double> %5, ptr %3, align 16, !tbaa !31
  %6 = load <2 x double>, ptr %3, align 16, !tbaa !31
  %7 = call noundef i32 @_ZL14_mm_cvtsd_si32Dv2_d(<2 x double> noundef %6)
  call void @llvm.lifetime.end.p0(i64 16, ptr %3) #3
  ret i32 %7
}

; Function Attrs: mustprogress nounwind uwtable
define available_externally noundef i64 @_ZNKSt7__cxx1112basic_stringIcSt11char_traitsIcESaIcEE4sizeEv(ptr noundef nonnull align 8 dereferenceable(32) %0) #7 align 2 {
  %2 = alloca ptr, align 8
  store ptr %0, ptr %2, align 8, !tbaa !23
  %3 = load ptr, ptr %2, align 8
  %4 = getelementptr inbounds nuw %"class.std::__cxx11::basic_string", ptr %3, i32 0, i32 1
  %5 = load i64, ptr %4, align 8, !tbaa !54
  ret i64 %5
}

; Function Attrs: mustprogress nounwind uwtable
define linkonce_odr hidden noundef nonnull align 8 dereferenceable(32) ptr @_ZNK6cvtest8BaseTest8get_nameB5cxx11Ev(ptr noundef nonnull align 8 dereferenceable(56) %0) #7 comdat align 2 {
  %2 = alloca ptr, align 8
  store ptr %0, ptr %2, align 8, !tbaa !34
  %3 = load ptr, ptr %2, align 8
  %4 = getelementptr inbounds nuw %"class.cvtest::BaseTest", ptr %3, i32 0, i32 2
  ret ptr %4
}

; Function Attrs: mustprogress uwtable
define hidden noundef i32 @_ZN6cvtest8BaseTest15update_progressEiiid(ptr noundef nonnull align 8 dereferenceable(56) %0, i32 noundef %1, i32 noundef %2, i32 noundef %3, double noundef %4) unnamed_addr #6 align 2 {
  %6 = alloca ptr, align 8
  %7 = alloca i32, align 4
  %8 = alloca i32, align 4
  %9 = alloca i32, align 4
  %10 = alloca double, align 8
  %11 = alloca i32, align 4
  %12 = alloca i32, align 4
  store ptr %0, ptr %6, align 8, !tbaa !34
  store i32 %1, ptr %7, align 4, !tbaa !8
  store i32 %2, ptr %8, align 4, !tbaa !8
  store i32 %3, ptr %9, align 4, !tbaa !8
  store double %4, ptr %10, align 8, !tbaa !60
  %13 = load ptr, ptr %6, align 8
  call void @llvm.lifetime.start.p0(i64 4, ptr %11) #3
  %14 = call noundef nonnull align 8 dereferenceable(32) ptr @_ZNK6cvtest8BaseTest8get_nameB5cxx11Ev(ptr noundef nonnull align 8 dereferenceable(56) %13)
  %15 = call noundef i64 @_ZNKSt7__cxx1112basic_stringIcSt11char_traitsIcESaIcEE4sizeEv(ptr noundef nonnull align 8 dereferenceable(32) %14) #3
  %16 = trunc i64 %15 to i32
  %17 = sub nsw i32 60, %16
  store i32 %17, ptr %11, align 4, !tbaa !8
  %18 = load i32, ptr %9, align 4, !tbaa !8
  %19 = icmp sgt i32 %18, 0
  br i1 %19, label %20, label %41

20:                                               ; preds = %5
  call void @llvm.lifetime.start.p0(i64 4, ptr %12) #3
  %21 = load i32, ptr %8, align 4, !tbaa !8
  %22 = sitofp i32 %21 to double
  %23 = load i32, ptr %11, align 4, !tbaa !8
  %24 = sitofp i32 %23 to double
  %25 = fmul double %22, %24
  %26 = load i32, ptr %9, align 4, !tbaa !8
  %27 = sitofp i32 %26 to double
  %28 = fdiv double %25, %27
  %29 = call noundef i32 @_ZL7cvRoundd(double noundef %28)
  store i32 %29, ptr %12, align 4, !tbaa !8
  %30 = load i32, ptr %12, align 4, !tbaa !8
  %31 = load i32, ptr %7, align 4, !tbaa !8
  %32 = icmp sgt i32 %30, %31
  br i1 %32, label %33, label %40

33:                                               ; preds = %20
  %34 = getelementptr inbounds nuw %"class.cvtest::BaseTest", ptr %13, i32 0, i32 3
  %35 = load ptr, ptr %34, align 8, !tbaa !36
  %36 = load ptr, ptr %35, align 8, !tbaa !17
  %37 = getelementptr inbounds ptr, ptr %36, i64 3
  %38 = load ptr, ptr %37, align 8
  call void (ptr, i32, ptr, ...) %38(ptr noundef nonnull align 8 dereferenceable(280) %35, i32 noundef 8, ptr noundef @.str.32)
  %39 = load i32, ptr %12, align 4, !tbaa !8
  store i32 %39, ptr %7, align 4, !tbaa !8
  br label %40

40:                                               ; preds = %33, %20
  call void @llvm.lifetime.end.p0(i64 4, ptr %12) #3
  br label %55

41:                                               ; preds = %5
  %42 = load double, ptr %10, align 8, !tbaa !60
  %43 = call noundef i32 @_ZL7cvRoundd(double noundef %42)
  %44 = load i32, ptr %7, align 4, !tbaa !8
  %45 = icmp sgt i32 %43, %44
  br i1 %45, label %46, label %54

46:                                               ; preds = %41
  %47 = getelementptr inbounds nuw %"class.cvtest::BaseTest", ptr %13, i32 0, i32 3
  %48 = load ptr, ptr %47, align 8, !tbaa !36
  %49 = load ptr, ptr %48, align 8, !tbaa !17
  %50 = getelementptr inbounds ptr, ptr %49, i64 3
  %51 = load ptr, ptr %50, align 8
  call void (ptr, i32, ptr, ...) %51(ptr noundef nonnull align 8 dereferenceable(280) %48, i32 noundef 8, ptr noundef @.str.32)
  %52 = load double, ptr %10, align 8, !tbaa !60
  %53 = call noundef i32 @_ZL7cvRoundd(double noundef %52)
  store i32 %53, ptr %7, align 4, !tbaa !8
  br label %54

54:                                               ; preds = %46, %41
  br label %55

55:                                               ; preds = %54, %40
  %56 = load i32, ptr %7, align 4, !tbaa !8
  call void @llvm.lifetime.end.p0(i64 4, ptr %11) #3
  ret i32 %56
}