; Function Attrs: mustprogress uwtable
define hidden noundef i32 @_ZN6cvtest8BaseTest15update_progressEiiid(ptr noundef nonnull readonly align 8 captures(none) dereferenceable(56) %0, i32 noundef %1, i32 noundef %2, i32 noundef %3, double noundef %4) unnamed_addr #22 align 2 {
  %6 = icmp sgt i32 %3, 0
  br i1 %6, label %7, label %20

7:                                                ; preds = %5
  %8 = getelementptr inbounds nuw i8, ptr %0, i64 24
  %9 = load i64, ptr %8, align 8, !tbaa !11
  %10 = trunc i64 %9 to i32
  %11 = sub nsw i32 60, %10
  %12 = sitofp i32 %2 to double
  %13 = sitofp i32 %11 to double
  %14 = fmul double %12, %13
  %15 = uitofp nneg i32 %3 to double
  %16 = fdiv double %14, %15
  %17 = insertelement <2 x double> poison, double %16, i64 0
  %18 = tail call noundef i32 @llvm.x86.sse2.cvtsd2si(<2 x double> %17)
  %19 = icmp sgt i32 %18, %1
  br i1 %19, label %.sink.split, label %29

20:                                               ; preds = %5
  %21 = insertelement <2 x double> poison, double %4, i64 0
  %22 = tail call noundef i32 @llvm.x86.sse2.cvtsd2si(<2 x double> %21)
  %23 = icmp sgt i32 %22, %1
  br i1 %23, label %.sink.split, label %29

.sink.split:                                      ; preds = %20, %7
  %.1.ph = phi i32 [ %18, %7 ], [ %22, %20 ]
  %24 = getelementptr inbounds nuw i8, ptr %0, i64 48
  %25 = load ptr, ptr %24, align 8, !tbaa !19
  %26 = load ptr, ptr %25, align 8, !tbaa !3
  %27 = getelementptr inbounds nuw i8, ptr %26, i64 24
  %28 = load ptr, ptr %27, align 8
  tail call void (ptr, i32, ptr, ...) %28(ptr noundef nonnull align 8 dereferenceable(280) %25, i32 noundef 8, ptr noundef nonnull @.str.32)
  br label %29

29:                                               ; preds = %.sink.split, %7, %20
  %.1 = phi i32 [ %1, %20 ], [ %1, %7 ], [ %.1.ph, %.sink.split ]
  ret i32 %.1
}